target datalayout = "e-m:e-p270:32:32-p271:32:32-p272:64:64-i64:64-i128:128-f80:128-n8:16:32:64-S128"
target triple = "x86_64-pc-linux-gnu"

%"class.cv::Matx.14" = type { [3 x double] }

@.str.41 = private unnamed_addr constant [6 x i8] c"(ddd)\00", align 1

; Function Attrs: mustprogress nounwind uwtable
define linkonce_odr hidden noundef nonnull align 8 dereferenceable(8) ptr @_ZNK2cv3VecIdLi3EEixEi(ptr noundef nonnull align 8 dereferenceable(24) %0, i32 noundef %1) #5 comdat align 2 {
  %3 = alloca ptr, align 8
  %4 = alloca i32, align 4
  store ptr %0, ptr %3, align 8
  store i32 %1, ptr %4, align 4
  %5 = load ptr, ptr %3, align 8
  %6 = getelementptr inbounds %"class.cv::Matx.14", ptr %5, i32 0, i32 0
  %7 = load i32, ptr %4, align 4
  %8 = sext i32 %7 to i64
  %9 = getelementptr inbounds [3 x double], ptr %6, i64 0, i64 %8
  ret ptr %9
}

; Function Attrs: mustprogress uwtable
define hidden noundef ptr @_Z13pyopencv_fromRKN2cv3VecIdLi3EEE(ptr noundef nonnull align 8 dereferenceable(24) %0) #4 {
  %2 = alloca ptr, align 8
  store ptr %0, ptr %2, align 8
  %3 = load ptr, ptr %2, align 8
  %4 = call noundef nonnull align 8 dereferenceable(8) ptr @_ZNK2cv3VecIdLi3EEixEi(ptr noundef nonnull align 8 dereferenceable(24) %3, i32 noundef 0)
  %5 = load double, ptr %4, align 8
  %6 = load ptr, ptr %2, align 8
  %7 = call noundef nonnull align 8 dereferenceable(8) ptr @_ZNK2cv3VecIdLi3EEixEi(ptr noundef nonnull align 8 dereferenceable(24) %6, i32 noundef 1)
  %8 = load double, ptr %7, align 8
  %9 = load ptr, ptr %2, align 8
  %10 = call noundef nonnull align 8 dereferenceable(8) ptr @_ZNK2cv3VecIdLi3EEixEi(ptr noundef nonnull align 8 dereferenceable(24) %9, i32 noundef 2)
  %11 = load double, ptr %10, align 8
  %12 = call ptr (ptr, ...) @Py_BuildValue(ptr noundef @.str.41, double noundef %5, double noundef %8, double noundef %11)
  ret ptr %12
}