; Function Attrs: mustprogress uwtable
define hidden noundef ptr @_Z13pyopencv_fromRKN2cv3VecIdLi3EEE(ptr nocapture noundef nonnull readonly align 8 dereferenceable(24) %0) local_unnamed_addr #3 {
  %2 = load double, ptr %0, align 8
  %3 = getelementptr inbounds i8, ptr %0, i64 8
  %4 = load double, ptr %3, align 8
  %5 = getelementptr inbounds i8, ptr %0, i64 16
  %6 = load double, ptr %5, align 8
  %7 = tail call ptr (ptr, ...) @Py_BuildValue(ptr noundef nonnull @.str.41, double noundef %2, double noundef %4, double noundef %6)
  ret ptr %7
}